; Function Attrs: nounwind sspstrong uwtable
define internal i64 @time_getgmtime(i64 noundef %0) #1 {
  %2 = tail call i64 @rb_obj_class(i64 noundef %0) #21
  %3 = tail call i64 @rb_data_typed_object_zalloc(i64 noundef %2, i64 noundef 48, ptr noundef nonnull @time_data_type) #21
  %4 = inttoptr i64 %3 to ptr
  %5 = getelementptr inbounds nuw i8, ptr %4, i64 24
  %6 = load i64, ptr %5, align 8, !tbaa !20
  %7 = and i64 %6, 2
  %.not.i.i.i = icmp eq i64 %7, 0
  %8 = getelementptr i8, ptr %4, i64 32
  br i1 %.not.i.i.i, label %9, label %time_dup.exit

9:                                                ; preds = %1
  %10 = load ptr, ptr %8, align 8, !tbaa !24
  br label %time_dup.exit

time_dup.exit:                                    ; preds = %1, %9
  %11 = phi ptr [ %10, %9 ], [ %8, %1 ]
  %12 = getelementptr inbounds nuw i8, ptr %11, i64 40
  %13 = load i64, ptr %12, align 8
  %14 = and i64 %13, -131941395333121
  %15 = or disjoint i64 %14, 26388279066624
  store i64 %15, ptr %12, align 8
  store i64 1, ptr %11, align 8, !tbaa !25
  %16 = getelementptr inbounds nuw i8, ptr %11, i64 32
  store i64 4, ptr %16, align 8, !tbaa !29
  %17 = tail call i64 @time_init_copy(i64 noundef %3, i64 noundef %0)
  %18 = tail call i64 @time_gmtime(i64 noundef %3)
  ret i64 %3
}